; ModuleID = '39/2279.c'
source_filename = "39/2279.c"
target datalayout = "e-m:e-p270:32:32-p271:32:32-p272:64:64-i64:64-f80:128-n8:16:32:64-S128"
target triple = "x86_64-pc-linux-gnu"

@.str = private unnamed_addr constant [3 x i8] c"%d\00", align 1
@.str.1 = private unnamed_addr constant [18 x i8] c"%s %d %d %c %c %d\00", align 1
@.str.2 = private unnamed_addr constant [10 x i8] c"%s\0A%d\0A%d\0A\00", align 1

; Function Attrs: noinline nounwind uwtable
define dso_local i32 @main() #0 {
  %1 = alloca i32, align 4
  %2 = alloca [20 x i8], align 16
  %3 = alloca i8, align 1
  %4 = alloca i8, align 1
  %5 = alloca [20 x i8], align 16
  %6 = alloca [100 x i32], align 16
  %7 = alloca [100 x i32], align 16
  %8 = alloca [100 x i32], align 16
  %9 = alloca i32, align 4
  %10 = alloca i32, align 4
  %11 = alloca i32, align 4
  %12 = alloca [100 x i32], align 16
  %13 = alloca i32, align 4
  %14 = alloca i32, align 4
  %15 = alloca i32, align 4
  store i32 0, i32* %1, align 4
  %16 = bitcast [100 x i32]* %12 to i8*
  call void @llvm.memset.p0i8.i64(i8* align 16 %16, i8 0, i64 400, i1 false)
  store i32 0, i32* %13, align 4
  store i32 0, i32* %15, align 4
  %17 = call i32 (i8*, ...) @__isoc99_scanf(i8* getelementptr inbounds ([3 x i8], [3 x i8]* @.str, i64 0, i64 0), i32* %9)
  store i32 0, i32* %10, align 4
  br label %18

18:                                               ; preds = %155, %0
  %19 = load i32, i32* %10, align 4
  %20 = load i32, i32* %9, align 4
  %21 = icmp slt i32 %19, %20
  br i1 %21, label %22, label %158

22:                                               ; preds = %18
  %23 = getelementptr inbounds [20 x i8], [20 x i8]* %2, i64 0, i64 0
  %24 = load i32, i32* %10, align 4
  %25 = sext i32 %24 to i64
  %26 = getelementptr inbounds [100 x i32], [100 x i32]* %6, i64 0, i64 %25
  %27 = load i32, i32* %10, align 4
  %28 = sext i32 %27 to i64
  %29 = getelementptr inbounds [100 x i32], [100 x i32]* %7, i64 0, i64 %28
  %30 = load i32, i32* %10, align 4
  %31 = sext i32 %30 to i64
  %32 = getelementptr inbounds [100 x i32], [100 x i32]* %8, i64 0, i64 %31
  %33 = call i32 (i8*, ...) @__isoc99_scanf(i8* getelementptr inbounds ([18 x i8], [18 x i8]* @.str.1, i64 0, i64 0), i8* %23, i32* %26, i32* %29, i8* %3, i8* %4, i32* %32)
  %34 = load i32, i32* %10, align 4
  %35 = sext i32 %34 to i64
  %36 = getelementptr inbounds [100 x i32], [100 x i32]* %6, i64 0, i64 %35
  %37 = load i32, i32* %36, align 4
  %38 = icmp sgt i32 %37, 80
  br i1 %38, label %39, label %51

39:                                               ; preds = %22
  %40 = load i32, i32* %10, align 4
  %41 = sext i32 %40 to i64
  %42 = getelementptr inbounds [100 x i32], [100 x i32]* %8, i64 0, i64 %41
  %43 = load i32, i32* %42, align 4
  %44 = icmp sge i32 %43, 1
  br i1 %44, label %45, label %51

45:                                               ; preds = %39
  %46 = load i32, i32* %10, align 4
  %47 = sext i32 %46 to i64
  %48 = getelementptr inbounds [100 x i32], [100 x i32]* %12, i64 0, i64 %47
  %49 = load i32, i32* %48, align 4
  %50 = add nsw i32 %49, 8000
  store i32 %50, i32* %48, align 4
  br label %51

51:                                               ; preds = %45, %39, %22
  %52 = load i32, i32* %10, align 4
  %53 = sext i32 %52 to i64
  %54 = getelementptr inbounds [100 x i32], [100 x i32]* %6, i64 0, i64 %53
  %55 = load i32, i32* %54, align 4
  %56 = icmp sgt i32 %55, 85
  br i1 %56, label %57, label %69

57:                                               ; preds = %51
  %58 = load i32, i32* %10, align 4
  %59 = sext i32 %58 to i64
  %60 = getelementptr inbounds [100 x i32], [100 x i32]* %7, i64 0, i64 %59
  %61 = load i32, i32* %60, align 4
  %62 = icmp sgt i32 %61, 80
  br i1 %62, label %63, label %69

63:                                               ; preds = %57
  %64 = load i32, i32* %10, align 4
  %65 = sext i32 %64 to i64
  %66 = getelementptr inbounds [100 x i32], [100 x i32]* %12, i64 0, i64 %65
  %67 = load i32, i32* %66, align 4
  %68 = add nsw i32 %67, 4000
  store i32 %68, i32* %66, align 4
  br label %69

69:                                               ; preds = %63, %57, %51
  %70 = load i32, i32* %10, align 4
  %71 = sext i32 %70 to i64
  %72 = getelementptr inbounds [100 x i32], [100 x i32]* %6, i64 0, i64 %71
  %73 = load i32, i32* %72, align 4
  %74 = icmp sgt i32 %73, 90
  br i1 %74, label %75, label %81

75:                                               ; preds = %69
  %76 = load i32, i32* %10, align 4
  %77 = sext i32 %76 to i64
  %78 = getelementptr inbounds [100 x i32], [100 x i32]* %12, i64 0, i64 %77
  %79 = load i32, i32* %78, align 4
  %80 = add nsw i32 %79, 2000
  store i32 %80, i32* %78, align 4
  br label %81

81:                                               ; preds = %75, %69
  %82 = load i32, i32* %10, align 4
  %83 = sext i32 %82 to i64
  %84 = getelementptr inbounds [100 x i32], [100 x i32]* %6, i64 0, i64 %83
  %85 = load i32, i32* %84, align 4
  %86 = icmp sgt i32 %85, 85
  br i1 %86, label %87, label %97

87:                                               ; preds = %81
  %88 = load i8, i8* %4, align 1
  %89 = sext i8 %88 to i32
  %90 = icmp eq i32 %89, 89
  br i1 %90, label %91, label %97

91:                                               ; preds = %87
  %92 = load i32, i32* %10, align 4
  %93 = sext i32 %92 to i64
  %94 = getelementptr inbounds [100 x i32], [100 x i32]* %12, i64 0, i64 %93
  %95 = load i32, i32* %94, align 4
  %96 = add nsw i32 %95, 1000
  store i32 %96, i32* %94, align 4
  br label %97

97:                                               ; preds = %91, %87, %81
  %98 = load i32, i32* %10, align 4
  %99 = sext i32 %98 to i64
  %100 = getelementptr inbounds [100 x i32], [100 x i32]* %7, i64 0, i64 %99
  %101 = load i32, i32* %100, align 4
  %102 = icmp sgt i32 %101, 80
  br i1 %102, label %103, label %113

103:                                              ; preds = %97
  %104 = load i8, i8* %3, align 1
  %105 = sext i8 %104 to i32
  %106 = icmp eq i32 %105, 89
  br i1 %106, label %107, label %113

107:                                              ; preds = %103
  %108 = load i32, i32* %10, align 4
  %109 = sext i32 %108 to i64
  %110 = getelementptr inbounds [100 x i32], [100 x i32]* %12, i64 0, i64 %109
  %111 = load i32, i32* %110, align 4
  %112 = add nsw i32 %111, 850
  store i32 %112, i32* %110, align 4
  br label %113

113:                                              ; preds = %107, %103, %97
  %114 = load i32, i32* %10, align 4
  %115 = sext i32 %114 to i64
  %116 = getelementptr inbounds [100 x i32], [100 x i32]* %12, i64 0, i64 %115
  %117 = load i32, i32* %116, align 4
  %118 = load i32, i32* %15, align 4
  %119 = add nsw i32 %118, %117
  store i32 %119, i32* %15, align 4
  %120 = load i32, i32* %10, align 4
  %121 = sext i32 %120 to i64
  %122 = getelementptr inbounds [100 x i32], [100 x i32]* %12, i64 0, i64 %121
  %123 = load i32, i32* %122, align 4
  %124 = load i32, i32* %13, align 4
  %125 = icmp sgt i32 %123, %124
  br i1 %125, label %126, label %154

126:                                              ; preds = %113
  %127 = load i32, i32* %10, align 4
  %128 = sext i32 %127 to i64
  %129 = getelementptr inbounds [100 x i32], [100 x i32]* %12, i64 0, i64 %128
  %130 = load i32, i32* %129, align 4
  store i32 %130, i32* %13, align 4
  %131 = load i32, i32* %10, align 4
  store i32 %131, i32* %14, align 4
  store i32 0, i32* %11, align 4
  br label %132

132:                                              ; preds = %147, %126
  %133 = load i32, i32* %11, align 4
  %134 = sext i32 %133 to i64
  %135 = getelementptr inbounds [20 x i8], [20 x i8]* %2, i64 0, i64 %134
  %136 = load i8, i8* %135, align 1
  %137 = sext i8 %136 to i32
  %138 = icmp ne i32 %137, 0
  br i1 %138, label %139, label %150

139:                                              ; preds = %132
  %140 = load i32, i32* %11, align 4
  %141 = sext i32 %140 to i64
  %142 = getelementptr inbounds [20 x i8], [20 x i8]* %2, i64 0, i64 %141
  %143 = load i8, i8* %142, align 1
  %144 = load i32, i32* %11, align 4
  %145 = sext i32 %144 to i64
  %146 = getelementptr inbounds [20 x i8], [20 x i8]* %5, i64 0, i64 %145
  store i8 %143, i8* %146, align 1
  br label %147

147:                                              ; preds = %139
  %148 = load i32, i32* %11, align 4
  %149 = add nsw i32 %148, 1
  store i32 %149, i32* %11, align 4
  br label %132

150:                                              ; preds = %132
  %151 = load i32, i32* %11, align 4
  %152 = sext i32 %151 to i64
  %153 = getelementptr inbounds [20 x i8], [20 x i8]* %5, i64 0, i64 %152
  store i8 0, i8* %153, align 1
  br label %154

154:                                              ; preds = %150, %113
  br label %155

155:                                              ; preds = %154
  %156 = load i32, i32* %10, align 4
  %157 = add nsw i32 %156, 1
  store i32 %157, i32* %10, align 4
  br label %18

158:                                              ; preds = %18
  %159 = getelementptr inbounds [20 x i8], [20 x i8]* %5, i64 0, i64 0
  %160 = load i32, i32* %14, align 4
  %161 = sext i32 %160 to i64
  %162 = getelementptr inbounds [100 x i32], [100 x i32]* %12, i64 0, i64 %161
  %163 = load i32, i32* %162, align 4
  %164 = load i32, i32* %15, align 4
  %165 = call i32 (i8*, ...) @printf(i8* getelementptr inbounds ([10 x i8], [10 x i8]* @.str.2, i64 0, i64 0), i8* %159, i32 %163, i32 %164)
  ret i32 0
}

; Function Attrs: argmemonly nounwind willreturn
declare void @llvm.memset.p0i8.i64(i8* nocapture writeonly, i8, i64, i1 immarg) #1

declare dso_local i32 @__isoc99_scanf(i8*, ...) #2

declare dso_local i32 @printf(i8*, ...) #2


!llvm.module.flags = !{!0}
!llvm.ident = !{!1}

!0 = !{i32 1, !"wchar_size", i32 4}
!1 = !{!"clang version 10.0.0-4ubuntu1 "}
